; Function Attrs: inlinehint nounwind uwtable
define internal fastcc void @check_marker(ptr noundef %0, ptr noundef captures(none) %1, ptr noundef %2) unnamed_addr #2 {
  %4 = getelementptr inbounds nuw i8, ptr %1, i64 16
  %5 = load i32, ptr %4, align 8, !tbaa !4
  %6 = load ptr, ptr %1, align 8, !tbaa !13
  %7 = lshr i32 %5, 3
  %8 = zext nneg i32 %7 to i64
  %9 = getelementptr inbounds nuw i8, ptr %6, i64 %8
  %10 = load i8, ptr %9, align 1, !tbaa !14
  %11 = getelementptr inbounds nuw i8, ptr %1, i64 24
  %12 = load i32, ptr %11, align 8, !tbaa !12
  %13 = icmp slt i32 %5, %12
  %14 = zext i1 %13 to i32
  %spec.select.i = add i32 %5, %14
  %15 = zext i8 %10 to i32
  %16 = and i32 %5, 7
  store i32 %spec.select.i, ptr %4, align 8, !tbaa !4
  %17 = lshr exact i32 128, %16
  %18 = and i32 %17, %15
  %.not = icmp eq i32 %18, 0
  br i1 %.not, label %19, label %23

19:                                               ; preds = %3
  %20 = add nsw i32 %spec.select.i, -1
  %21 = getelementptr inbounds nuw i8, ptr %1, i64 20
  %22 = load i32, ptr %21, align 4, !tbaa !11
  tail call void (ptr, i32, ptr, ...) @av_log(ptr noundef %0, i32 noundef 32, ptr noundef nonnull @.str.12, i32 noundef %20, i32 noundef %22, ptr noundef %2) #5
  br label %23

23:                                               ; preds = %19, %3
  ret void
}